; Function Attrs: nounwind uwtable
define hidden void @mbedtls_rsa_free(ptr noundef %0) local_unnamed_addr #0 {
  %2 = icmp eq ptr %0, null
  br i1 %2, label %17, label %3

3:                                                ; preds = %1
  %4 = getelementptr inbounds nuw i8, ptr %0, i64 192
  tail call void @mbedtls_mpi_free(ptr noundef nonnull %4) #14
  %5 = getelementptr inbounds nuw i8, ptr %0, i64 208
  tail call void @mbedtls_mpi_free(ptr noundef nonnull %5) #14
  %6 = getelementptr inbounds nuw i8, ptr %0, i64 144
  tail call void @mbedtls_mpi_free(ptr noundef nonnull %6) #14
  %7 = getelementptr inbounds nuw i8, ptr %0, i64 48
  tail call void @mbedtls_mpi_free(ptr noundef nonnull %7) #14
  %8 = getelementptr inbounds nuw i8, ptr %0, i64 80
  tail call void @mbedtls_mpi_free(ptr noundef nonnull %8) #14
  %9 = getelementptr inbounds nuw i8, ptr %0, i64 64
  tail call void @mbedtls_mpi_free(ptr noundef nonnull %9) #14
  %10 = getelementptr inbounds nuw i8, ptr %0, i64 32
  tail call void @mbedtls_mpi_free(ptr noundef nonnull %10) #14
  %11 = getelementptr inbounds nuw i8, ptr %0, i64 16
  tail call void @mbedtls_mpi_free(ptr noundef nonnull %11) #14
  %12 = getelementptr inbounds nuw i8, ptr %0, i64 176
  tail call void @mbedtls_mpi_free(ptr noundef nonnull %12) #14
  %13 = getelementptr inbounds nuw i8, ptr %0, i64 160
  tail call void @mbedtls_mpi_free(ptr noundef nonnull %13) #14
  %14 = getelementptr inbounds nuw i8, ptr %0, i64 128
  tail call void @mbedtls_mpi_free(ptr noundef nonnull %14) #14
  %15 = getelementptr inbounds nuw i8, ptr %0, i64 112
  tail call void @mbedtls_mpi_free(ptr noundef nonnull %15) #14
  %16 = getelementptr inbounds nuw i8, ptr %0, i64 96
  tail call void @mbedtls_mpi_free(ptr noundef nonnull %16) #14
  br label %17

17:                                               ; preds = %1, %3
  ret void
}